target datalayout = "e-m:e-p270:32:32-p271:32:32-p272:64:64-i64:64-i128:128-f80:128-n8:16:32:64-S128"
target triple = "x86_64-pc-linux-gnu"

%struct.ConnectionType = type { ptr, ptr, ptr, ptr, ptr, ptr, ptr, ptr, ptr, ptr, ptr, ptr, ptr, ptr, ptr, ptr, ptr, ptr, ptr, ptr, ptr, ptr, ptr, ptr, ptr, ptr, ptr, ptr, ptr, ptr }

@connTypes = internal global [8 x ptr] zeroinitializer, align 16

; Function Attrs: nounwind uwtable
define dso_local void @connTypeCleanupAll() #0 {
  %1 = alloca ptr, align 8
  %2 = alloca i32, align 4
  call void @llvm.lifetime.start.p0(i64 8, ptr %1) #6
  call void @llvm.lifetime.start.p0(i64 4, ptr %2) #6
  store i32 0, ptr %2, align 4, !tbaa !14
  br label %3

3:                                                ; preds = %24, %0
  %4 = load i32, ptr %2, align 4, !tbaa !14
  %5 = icmp slt i32 %4, 8
  br i1 %5, label %6, label %27

6:                                                ; preds = %3
  %7 = load i32, ptr %2, align 4, !tbaa !14
  %8 = sext i32 %7 to i64
  %9 = getelementptr inbounds [8 x ptr], ptr @connTypes, i64 0, i64 %8
  %10 = load ptr, ptr %9, align 8, !tbaa !5
  store ptr %10, ptr %1, align 8, !tbaa !5
  %11 = load ptr, ptr %1, align 8, !tbaa !5
  %12 = icmp ne ptr %11, null
  br i1 %12, label %14, label %13

13:                                               ; preds = %6
  br label %27

14:                                               ; preds = %6
  %15 = load ptr, ptr %1, align 8, !tbaa !5
  %16 = getelementptr inbounds nuw %struct.ConnectionType, ptr %15, i32 0, i32 2
  %17 = load ptr, ptr %16, align 8, !tbaa !48
  %18 = icmp ne ptr %17, null
  br i1 %18, label %19, label %23

19:                                               ; preds = %14
  %20 = load ptr, ptr %1, align 8, !tbaa !5
  %21 = getelementptr inbounds nuw %struct.ConnectionType, ptr %20, i32 0, i32 2
  %22 = load ptr, ptr %21, align 8, !tbaa !48
  call void %22()
  br label %23

23:                                               ; preds = %19, %14
  br label %24

24:                                               ; preds = %23
  %25 = load i32, ptr %2, align 4, !tbaa !14
  %26 = add nsw i32 %25, 1
  store i32 %26, ptr %2, align 4, !tbaa !14
  br label %3, !llvm.loop !49

27:                                               ; preds = %13, %3
  call void @llvm.lifetime.end.p0(i64 4, ptr %2) #6
  call void @llvm.lifetime.end.p0(i64 8, ptr %1) #6
  ret void
}