; Function Attrs: nounwind uwtable
define dso_local void @connTypeCleanupAll() local_unnamed_addr #0 {
  br label %1

1:                                                ; preds = %0, %8
  %indvars.iv = phi i64 [ 0, %0 ], [ %indvars.iv.next, %8 ]
  %2 = getelementptr inbounds nuw [8 x ptr], ptr @connTypes, i64 0, i64 %indvars.iv
  %3 = load ptr, ptr %2, align 8, !tbaa !10
  %.not = icmp eq ptr %3, null
  br i1 %.not, label %9, label %4

4:                                                ; preds = %1
  %5 = getelementptr inbounds nuw i8, ptr %3, i64 16
  %6 = load ptr, ptr %5, align 8, !tbaa !47
  %.not7 = icmp eq ptr %6, null
  br i1 %.not7, label %8, label %7

7:                                                ; preds = %4
  tail call void %6() #4
  br label %8

8:                                                ; preds = %4, %7
  %indvars.iv.next = add nuw nsw i64 %indvars.iv, 1
  %exitcond.not = icmp eq i64 %indvars.iv.next, 8
  br i1 %exitcond.not, label %9, label %1, !llvm.loop !48

9:                                                ; preds = %1, %8
  ret void
}